target datalayout = "e-m:e-p270:32:32-p271:32:32-p272:64:64-i64:64-i128:128-f80:128-n8:16:32:64-S128"
target triple = "x86_64-pc-linux-gnu"

%struct.Abc_Frame_t_ = type { ptr, ptr, ptr, ptr, ptr, ptr, ptr, ptr, ptr, ptr, i32, i32, i32, i32, i32, ptr, float, float, i32, i32, ptr, ptr, ptr, double, double, ptr, ptr, ptr, ptr, ptr, ptr, ptr, ptr, ptr, ptr, ptr, ptr, float, ptr, i32, ptr, ptr, ptr, ptr, ptr, i32, i32, i32, i32, i32, i32, ptr, ptr, ptr, ptr, ptr, ptr, i32, i32, ptr, ptr, ptr, ptr, ptr, ptr, ptr, ptr, ptr, ptr, ptr, ptr, ptr, ptr, ptr, ptr, ptr, ptr, ptr, ptr, ptr, ptr, ptr, ptr, ptr, ptr, ptr, ptr, ptr, ptr }

@.str.10 = private unnamed_addr constant [44 x i8] c"GIA derived from MiniAig is not available.\0A\00", align 1
@.str.11 = private unnamed_addr constant [44 x i8] c"GIA derived from MiniLut is not available.\0A\00", align 1

; Function Attrs: nounwind uwtable
define ptr @Abc_FrameReadMiniLutNameMapping(ptr noundef %0) #0 {
  %2 = alloca ptr, align 8
  %3 = alloca ptr, align 8
  %4 = alloca i32, align 4
  %5 = alloca i32, align 4
  %6 = alloca ptr, align 8
  %7 = alloca ptr, align 8
  %8 = alloca ptr, align 8
  %9 = alloca i32, align 4
  store ptr %0, ptr %3, align 8, !tbaa !58
  call void @llvm.lifetime.start.p0(i64 4, ptr %4) #13
  store i32 0, ptr %4, align 4, !tbaa !12
  call void @llvm.lifetime.start.p0(i64 4, ptr %5) #13
  store i32 1000, ptr %5, align 4, !tbaa !12
  call void @llvm.lifetime.start.p0(i64 8, ptr %6) #13
  call void @llvm.lifetime.start.p0(i64 8, ptr %7) #13
  call void @llvm.lifetime.start.p0(i64 8, ptr %8) #13
  store ptr null, ptr %8, align 8, !tbaa !83
  %10 = load ptr, ptr %3, align 8, !tbaa !58
  %11 = getelementptr inbounds nuw %struct.Abc_Frame_t_, ptr %10, i32 0, i32 80
  %12 = load ptr, ptr %11, align 8, !tbaa !61
  %13 = icmp eq ptr %12, null
  br i1 %13, label %14, label %16

14:                                               ; preds = %1
  %15 = call i32 (ptr, ...) @printf(ptr noundef @.str.10)
  br label %16

16:                                               ; preds = %14, %1
  %17 = load ptr, ptr %3, align 8, !tbaa !58
  %18 = getelementptr inbounds nuw %struct.Abc_Frame_t_, ptr %17, i32 0, i32 81
  %19 = load ptr, ptr %18, align 8, !tbaa !128
  %20 = icmp eq ptr %19, null
  br i1 %20, label %21, label %23

21:                                               ; preds = %16
  %22 = call i32 (ptr, ...) @printf(ptr noundef @.str.11)
  br label %23

23:                                               ; preds = %21, %16
  %24 = load ptr, ptr %3, align 8, !tbaa !58
  %25 = getelementptr inbounds nuw %struct.Abc_Frame_t_, ptr %24, i32 0, i32 80
  %26 = load ptr, ptr %25, align 8, !tbaa !61
  %27 = icmp eq ptr %26, null
  br i1 %27, label %33, label %28

28:                                               ; preds = %23
  %29 = load ptr, ptr %3, align 8, !tbaa !58
  %30 = getelementptr inbounds nuw %struct.Abc_Frame_t_, ptr %29, i32 0, i32 81
  %31 = load ptr, ptr %30, align 8, !tbaa !128
  %32 = icmp eq ptr %31, null
  br i1 %32, label %33, label %34

33:                                               ; preds = %28, %23
  store ptr null, ptr %2, align 8
  store i32 1, ptr %9, align 4
  br label %63

34:                                               ; preds = %28
  %35 = load ptr, ptr %3, align 8, !tbaa !58
  %36 = getelementptr inbounds nuw %struct.Abc_Frame_t_, ptr %35, i32 0, i32 80
  %37 = load ptr, ptr %36, align 8, !tbaa !61
  %38 = load ptr, ptr %3, align 8, !tbaa !58
  %39 = getelementptr inbounds nuw %struct.Abc_Frame_t_, ptr %38, i32 0, i32 81
  %40 = load ptr, ptr %39, align 8, !tbaa !128
  %41 = call ptr @Gia_ManDup2(ptr noundef %37, ptr noundef %40)
  store ptr %41, ptr %6, align 8, !tbaa !3
  %42 = load ptr, ptr %6, align 8, !tbaa !3
  %43 = load i32, ptr %5, align 4, !tbaa !12
  %44 = load i32, ptr %4, align 4, !tbaa !12
  %45 = call ptr @Gia_ManComputeGiaEquivs(ptr noundef %42, i32 noundef %43, i32 noundef %44)
  store ptr %45, ptr %7, align 8, !tbaa !3
  %46 = load ptr, ptr %7, align 8, !tbaa !3
  call void @Gia_ManStop(ptr noundef %46)
  %47 = load ptr, ptr %6, align 8, !tbaa !3
  %48 = load ptr, ptr %3, align 8, !tbaa !58
  %49 = getelementptr inbounds nuw %struct.Abc_Frame_t_, ptr %48, i32 0, i32 80
  %50 = load ptr, ptr %49, align 8, !tbaa !61
  %51 = load ptr, ptr %3, align 8, !tbaa !58
  %52 = getelementptr inbounds nuw %struct.Abc_Frame_t_, ptr %51, i32 0, i32 81
  %53 = load ptr, ptr %52, align 8, !tbaa !128
  %54 = load ptr, ptr %3, align 8, !tbaa !58
  %55 = getelementptr inbounds nuw %struct.Abc_Frame_t_, ptr %54, i32 0, i32 82
  %56 = load ptr, ptr %55, align 8, !tbaa !135
  %57 = load ptr, ptr %3, align 8, !tbaa !58
  %58 = getelementptr inbounds nuw %struct.Abc_Frame_t_, ptr %57, i32 0, i32 83
  %59 = load ptr, ptr %58, align 8, !tbaa !136
  %60 = call ptr @Gia_ManMapMiniLut2MiniAig(ptr noundef %47, ptr noundef %50, ptr noundef %53, ptr noundef %56, ptr noundef %59)
  store ptr %60, ptr %8, align 8, !tbaa !83
  %61 = load ptr, ptr %6, align 8, !tbaa !3
  call void @Gia_ManStop(ptr noundef %61)
  %62 = load ptr, ptr %8, align 8, !tbaa !83
  store ptr %62, ptr %2, align 8
  store i32 1, ptr %9, align 4
  br label %63

63:                                               ; preds = %34, %33
  call void @llvm.lifetime.end.p0(i64 8, ptr %8) #13
  call void @llvm.lifetime.end.p0(i64 8, ptr %7) #13
  call void @llvm.lifetime.end.p0(i64 8, ptr %6) #13
  call void @llvm.lifetime.end.p0(i64 4, ptr %5) #13
  call void @llvm.lifetime.end.p0(i64 4, ptr %4) #13
  %64 = load ptr, ptr %2, align 8
  ret ptr %64
}