; Function Attrs: nounwind uwtable
define noalias noundef ptr @Abc_FrameReadMiniLutNameMapping(ptr noundef readonly captures(none) %0) local_unnamed_addr #2 {
  %2 = getelementptr inbounds nuw i8, ptr %0, i64 576
  %3 = load ptr, ptr %2, align 8, !tbaa !52
  %4 = icmp eq ptr %3, null
  br i1 %4, label %5, label %6

5:                                                ; preds = %1
  %puts = tail call i32 @puts(ptr nonnull dereferenceable(1) @str.14)
  br label %6

6:                                                ; preds = %5, %1
  %7 = getelementptr inbounds nuw i8, ptr %0, i64 584
  %8 = load ptr, ptr %7, align 8, !tbaa !111
  %9 = icmp eq ptr %8, null
  br i1 %9, label %10, label %11

10:                                               ; preds = %6
  %puts19 = tail call i32 @puts(ptr nonnull dereferenceable(1) @str.12)
  br label %11

11:                                               ; preds = %10, %6
  %12 = load ptr, ptr %2, align 8, !tbaa !52
  %13 = icmp eq ptr %12, null
  br i1 %13, label %27, label %14

14:                                               ; preds = %11
  %15 = load ptr, ptr %7, align 8, !tbaa !111
  %16 = icmp eq ptr %15, null
  br i1 %16, label %27, label %17

17:                                               ; preds = %14
  %18 = tail call ptr @Gia_ManDup2(ptr noundef nonnull %12, ptr noundef nonnull %15) #25
  %19 = tail call ptr @Gia_ManComputeGiaEquivs(ptr noundef %18, i32 noundef 1000, i32 noundef 0) #25
  tail call void @Gia_ManStop(ptr noundef %19) #25
  %20 = load ptr, ptr %2, align 8, !tbaa !52
  %21 = load ptr, ptr %7, align 8, !tbaa !111
  %22 = getelementptr inbounds nuw i8, ptr %0, i64 592
  %23 = load ptr, ptr %22, align 8, !tbaa !118
  %24 = getelementptr inbounds nuw i8, ptr %0, i64 600
  %25 = load ptr, ptr %24, align 8, !tbaa !119
  %26 = tail call ptr @Gia_ManMapMiniLut2MiniAig(ptr noundef %18, ptr noundef %20, ptr noundef %21, ptr noundef %23, ptr noundef %25)
  tail call void @Gia_ManStop(ptr noundef %18) #25
  br label %27

27:                                               ; preds = %11, %14, %17
  %.0 = phi ptr [ %26, %17 ], [ null, %14 ], [ null, %11 ]
  ret ptr %.0
}